target datalayout = "e-m:e-p270:32:32-p271:32:32-p272:64:64-i64:64-i128:128-f80:128-n8:16:32:64-S128"
target triple = "x86_64-pc-linux-gnu"

%struct.Wlc_Ntk_t_ = type { ptr, ptr, %struct.Vec_Int_t_, %struct.Vec_Int_t_, %struct.Vec_Int_t_, %struct.Vec_Int_t_, %struct.Vec_Int_t_, %struct.Vec_Int_t_, ptr, ptr, ptr, [60 x i32], [60 x i32], i32, i32, i32, i32, i32, ptr, i32, i32, ptr, ptr, ptr, ptr, ptr, %struct.Vec_Int_t_, %struct.Vec_Int_t_, i32, %struct.Vec_Int_t_, %struct.Vec_Int_t_, %struct.Vec_Int_t_, %struct.Vec_Int_t_, %struct.Vec_Int_t_, %struct.Vec_Int_t_ }
%struct.Vec_Int_t_ = type { i32, i32, ptr }
%struct.Wlc_Obj_t_ = type { i16, i32, i32, i32, %union.anon }
%union.anon = type { [1 x ptr] }

@.str.5 = private unnamed_addr constant [2 x i8] c"\0A\00", align 1
@.str.28 = private unnamed_addr constant [17 x i8] c"Read port %6d : \00", align 1
@.str.29 = private unnamed_addr constant [15 x i8] c"Inputs = %6d  \00", align 1
@.str.30 = private unnamed_addr constant [8 x i8] c"%d(%s) \00", align 1

; Function Attrs: inlinehint nounwind uwtable
define internal ptr @Vec_IntAlloc(i32 noundef %0) #2 {
  %2 = alloca i32, align 4
  %3 = alloca ptr, align 8
  store i32 %0, ptr %2, align 4, !tbaa !8
  call void @llvm.lifetime.start.p0(i64 8, ptr %3) #12
  %4 = call noalias ptr @malloc(i64 noundef 16) #13
  store ptr %4, ptr %3, align 8, !tbaa !10
  %5 = load i32, ptr %2, align 4, !tbaa !8
  %6 = icmp sgt i32 %5, 0
  br i1 %6, label %7, label %11

7:                                                ; preds = %1
  %8 = load i32, ptr %2, align 4, !tbaa !8
  %9 = icmp slt i32 %8, 16
  br i1 %9, label %10, label %11

10:                                               ; preds = %7
  store i32 16, ptr %2, align 4, !tbaa !8
  br label %11

11:                                               ; preds = %10, %7, %1
  %12 = load ptr, ptr %3, align 8, !tbaa !10
  %13 = getelementptr inbounds nuw %struct.Vec_Int_t_, ptr %12, i32 0, i32 1
  store i32 0, ptr %13, align 4, !tbaa !31
  %14 = load i32, ptr %2, align 4, !tbaa !8
  %15 = load ptr, ptr %3, align 8, !tbaa !10
  %16 = getelementptr inbounds nuw %struct.Vec_Int_t_, ptr %15, i32 0, i32 0
  store i32 %14, ptr %16, align 8, !tbaa !32
  %17 = load ptr, ptr %3, align 8, !tbaa !10
  %18 = getelementptr inbounds nuw %struct.Vec_Int_t_, ptr %17, i32 0, i32 0
  %19 = load i32, ptr %18, align 8, !tbaa !32
  %20 = icmp ne i32 %19, 0
  br i1 %20, label %21, label %28

21:                                               ; preds = %11
  %22 = load ptr, ptr %3, align 8, !tbaa !10
  %23 = getelementptr inbounds nuw %struct.Vec_Int_t_, ptr %22, i32 0, i32 0
  %24 = load i32, ptr %23, align 8, !tbaa !32
  %25 = sext i32 %24 to i64
  %26 = mul i64 4, %25
  %27 = call noalias ptr @malloc(i64 noundef %26) #13
  br label %29

28:                                               ; preds = %11
  br label %29

29:                                               ; preds = %28, %21
  %30 = phi ptr [ %27, %21 ], [ null, %28 ]
  %31 = load ptr, ptr %3, align 8, !tbaa !10
  %32 = getelementptr inbounds nuw %struct.Vec_Int_t_, ptr %31, i32 0, i32 2
  store ptr %30, ptr %32, align 8, !tbaa !33
  %33 = load ptr, ptr %3, align 8, !tbaa !10
  call void @llvm.lifetime.end.p0(i64 8, ptr %3) #12
  ret ptr %33
}

; Function Attrs: inlinehint nounwind uwtable
define internal void @Vec_IntFree(ptr noundef %0) #2 {
  %2 = alloca ptr, align 8
  store ptr %0, ptr %2, align 8, !tbaa !10
  %3 = load ptr, ptr %2, align 8, !tbaa !10
  %4 = getelementptr inbounds nuw %struct.Vec_Int_t_, ptr %3, i32 0, i32 2
  %5 = load ptr, ptr %4, align 8, !tbaa !33
  %6 = icmp ne ptr %5, null
  br i1 %6, label %7, label %13

7:                                                ; preds = %1
  %8 = load ptr, ptr %2, align 8, !tbaa !10
  %9 = getelementptr inbounds nuw %struct.Vec_Int_t_, ptr %8, i32 0, i32 2
  %10 = load ptr, ptr %9, align 8, !tbaa !33
  call void @free(ptr noundef %10) #12
  %11 = load ptr, ptr %2, align 8, !tbaa !10
  %12 = getelementptr inbounds nuw %struct.Vec_Int_t_, ptr %11, i32 0, i32 2
  store ptr null, ptr %12, align 8, !tbaa !33
  br label %14

13:                                               ; preds = %1
  br label %14

14:                                               ; preds = %13, %7
  %15 = load ptr, ptr %2, align 8, !tbaa !10
  %16 = icmp ne ptr %15, null
  br i1 %16, label %17, label %19

17:                                               ; preds = %14
  %18 = load ptr, ptr %2, align 8, !tbaa !10
  call void @free(ptr noundef %18) #12
  store ptr null, ptr %2, align 8, !tbaa !10
  br label %20

19:                                               ; preds = %14
  br label %20

20:                                               ; preds = %19, %17
  ret void
}

; Function Attrs: inlinehint nounwind uwtable
define internal i32 @Wlc_ObjId(ptr noundef %0, ptr noundef %1) #2 {
  %3 = alloca ptr, align 8
  %4 = alloca ptr, align 8
  store ptr %0, ptr %3, align 8, !tbaa !3
  store ptr %1, ptr %4, align 8, !tbaa !12
  %5 = load ptr, ptr %4, align 8, !tbaa !12
  %6 = load ptr, ptr %3, align 8, !tbaa !3
  %7 = getelementptr inbounds nuw %struct.Wlc_Ntk_t_, ptr %6, i32 0, i32 18
  %8 = load ptr, ptr %7, align 8, !tbaa !20
  %9 = ptrtoint ptr %5 to i64
  %10 = ptrtoint ptr %8 to i64
  %11 = sub i64 %9, %10
  %12 = sdiv exact i64 %11, 24
  %13 = trunc i64 %12 to i32
  ret i32 %13
}

; Function Attrs: inlinehint nounwind uwtable
define internal void @Vec_IntClear(ptr noundef %0) #2 {
  %2 = alloca ptr, align 8
  store ptr %0, ptr %2, align 8, !tbaa !10
  %3 = load ptr, ptr %2, align 8, !tbaa !10
  %4 = getelementptr inbounds nuw %struct.Vec_Int_t_, ptr %3, i32 0, i32 1
  store i32 0, ptr %4, align 4, !tbaa !31
  ret void
}

; Function Attrs: inlinehint nounwind uwtable
define internal i32 @Wlc_ObjType(ptr noundef %0) #2 {
  %2 = alloca ptr, align 8
  store ptr %0, ptr %2, align 8, !tbaa !12
  %3 = load ptr, ptr %2, align 8, !tbaa !12
  %4 = load i16, ptr %3, align 8
  %5 = and i16 %4, 63
  %6 = zext i16 %5 to i32
  ret i32 %6
}

; Function Attrs: inlinehint nounwind uwtable
define internal ptr @Wlc_NtkObj(ptr noundef %0, i32 noundef %1) #2 {
  %3 = alloca ptr, align 8
  %4 = alloca i32, align 4
  store ptr %0, ptr %3, align 8, !tbaa !3
  store i32 %1, ptr %4, align 4, !tbaa !8
  %5 = load ptr, ptr %3, align 8, !tbaa !3
  %6 = getelementptr inbounds nuw %struct.Wlc_Ntk_t_, ptr %5, i32 0, i32 18
  %7 = load ptr, ptr %6, align 8, !tbaa !20
  %8 = load i32, ptr %4, align 4, !tbaa !8
  %9 = sext i32 %8 to i64
  %10 = getelementptr inbounds %struct.Wlc_Obj_t_, ptr %7, i64 %9
  ret ptr %10
}

; Function Attrs: inlinehint nounwind uwtable
define internal i32 @Vec_IntEntry(ptr noundef %0, i32 noundef %1) #2 {
  %3 = alloca ptr, align 8
  %4 = alloca i32, align 4
  store ptr %0, ptr %3, align 8, !tbaa !10
  store i32 %1, ptr %4, align 4, !tbaa !8
  %5 = load ptr, ptr %3, align 8, !tbaa !10
  %6 = getelementptr inbounds nuw %struct.Vec_Int_t_, ptr %5, i32 0, i32 2
  %7 = load ptr, ptr %6, align 8, !tbaa !33
  %8 = load i32, ptr %4, align 4, !tbaa !8
  %9 = sext i32 %8 to i64
  %10 = getelementptr inbounds i32, ptr %7, i64 %9
  %11 = load i32, ptr %10, align 4, !tbaa !8
  ret i32 %11
}

; Function Attrs: inlinehint nounwind uwtable
define internal i32 @Vec_IntSize(ptr noundef %0) #2 {
  %2 = alloca ptr, align 8
  store ptr %0, ptr %2, align 8, !tbaa !10
  %3 = load ptr, ptr %2, align 8, !tbaa !10
  %4 = getelementptr inbounds nuw %struct.Vec_Int_t_, ptr %3, i32 0, i32 1
  %5 = load i32, ptr %4, align 4, !tbaa !31
  ret i32 %5
}

; Function Attrs: inlinehint nounwind uwtable
define internal ptr @Vec_IntStart(i32 noundef %0) #2 {
  %2 = alloca i32, align 4
  %3 = alloca ptr, align 8
  store i32 %0, ptr %2, align 4, !tbaa !8
  call void @llvm.lifetime.start.p0(i64 8, ptr %3) #12
  %4 = load i32, ptr %2, align 4, !tbaa !8
  %5 = call ptr @Vec_IntAlloc(i32 noundef %4)
  store ptr %5, ptr %3, align 8, !tbaa !10
  %6 = load i32, ptr %2, align 4, !tbaa !8
  %7 = load ptr, ptr %3, align 8, !tbaa !10
  %8 = getelementptr inbounds nuw %struct.Vec_Int_t_, ptr %7, i32 0, i32 1
  store i32 %6, ptr %8, align 4, !tbaa !31
  %9 = load ptr, ptr %3, align 8, !tbaa !10
  %10 = getelementptr inbounds nuw %struct.Vec_Int_t_, ptr %9, i32 0, i32 2
  %11 = load ptr, ptr %10, align 8, !tbaa !33
  %12 = icmp ne ptr %11, null
  br i1 %12, label %13, label %20

13:                                               ; preds = %1
  %14 = load ptr, ptr %3, align 8, !tbaa !10
  %15 = getelementptr inbounds nuw %struct.Vec_Int_t_, ptr %14, i32 0, i32 2
  %16 = load ptr, ptr %15, align 8, !tbaa !33
  %17 = load i32, ptr %2, align 4, !tbaa !8
  %18 = sext i32 %17 to i64
  %19 = mul i64 4, %18
  call void @llvm.memset.p0.i64(ptr align 4 %16, i8 0, i64 %19, i1 false)
  br label %20

20:                                               ; preds = %13, %1
  %21 = load ptr, ptr %3, align 8, !tbaa !10
  call void @llvm.lifetime.end.p0(i64 8, ptr %3) #12
  ret ptr %21
}

; Function Attrs: nounwind uwtable
define void @Wlc_NtkExploreMem(ptr noundef %0, i32 noundef %1) #0 {
  %3 = alloca ptr, align 8
  %4 = alloca i32, align 4
  %5 = alloca ptr, align 8
  %6 = alloca i32, align 4
  %7 = alloca i32, align 4
  %8 = alloca i32, align 4
  %9 = alloca ptr, align 8
  %10 = alloca ptr, align 8
  store ptr %0, ptr %3, align 8, !tbaa !3
  store i32 %1, ptr %4, align 4, !tbaa !8
  call void @llvm.lifetime.start.p0(i64 8, ptr %5) #12
  call void @llvm.lifetime.start.p0(i64 4, ptr %6) #12
  call void @llvm.lifetime.start.p0(i64 4, ptr %7) #12
  call void @llvm.lifetime.start.p0(i64 4, ptr %8) #12
  call void @llvm.lifetime.start.p0(i64 8, ptr %9) #12
  %11 = call ptr @Vec_IntStart(i32 noundef 1000)
  store ptr %11, ptr %9, align 8, !tbaa !10
  call void @llvm.lifetime.start.p0(i64 8, ptr %10) #12
  %12 = load ptr, ptr %3, align 8, !tbaa !3
  %13 = call ptr @Wlc_NtkCollectMemory(ptr noundef %12, i32 noundef 1)
  store ptr %13, ptr %10, align 8, !tbaa !10
  %14 = load ptr, ptr %3, align 8, !tbaa !3
  call void @Wlc_NtkCleanMarks(ptr noundef %14)
  store i32 0, ptr %6, align 4, !tbaa !8
  br label %15

15:                                               ; preds = %33, %2
  %16 = load i32, ptr %6, align 4, !tbaa !8
  %17 = load ptr, ptr %10, align 8, !tbaa !10
  %18 = call i32 @Vec_IntSize(ptr noundef %17)
  %19 = icmp slt i32 %16, %18
  br i1 %19, label %20, label %26

20:                                               ; preds = %15
  %21 = load ptr, ptr %3, align 8, !tbaa !3
  %22 = load ptr, ptr %10, align 8, !tbaa !10
  %23 = load i32, ptr %6, align 4, !tbaa !8
  %24 = call i32 @Vec_IntEntry(ptr noundef %22, i32 noundef %23)
  %25 = call ptr @Wlc_NtkObj(ptr noundef %21, i32 noundef %24)
  store ptr %25, ptr %5, align 8, !tbaa !12
  br label %26

26:                                               ; preds = %20, %15
  %27 = phi i1 [ false, %15 ], [ true, %20 ]
  br i1 %27, label %28, label %36

28:                                               ; preds = %26
  %29 = load ptr, ptr %5, align 8, !tbaa !12
  %30 = load i16, ptr %29, align 8
  %31 = and i16 %30, -129
  %32 = or i16 %31, 128
  store i16 %32, ptr %29, align 8
  br label %33

33:                                               ; preds = %28
  %34 = load i32, ptr %6, align 4, !tbaa !8
  %35 = add nsw i32 %34, 1
  store i32 %35, ptr %6, align 4, !tbaa !8
  br label %15, !llvm.loop !165

36:                                               ; preds = %26
  store i32 0, ptr %6, align 4, !tbaa !8
  br label %37

37:                                               ; preds = %90, %36
  %38 = load i32, ptr %6, align 4, !tbaa !8
  %39 = load ptr, ptr %10, align 8, !tbaa !10
  %40 = call i32 @Vec_IntSize(ptr noundef %39)
  %41 = icmp slt i32 %38, %40
  br i1 %41, label %42, label %48

42:                                               ; preds = %37
  %43 = load ptr, ptr %3, align 8, !tbaa !3
  %44 = load ptr, ptr %10, align 8, !tbaa !10
  %45 = load i32, ptr %6, align 4, !tbaa !8
  %46 = call i32 @Vec_IntEntry(ptr noundef %44, i32 noundef %45)
  %47 = call ptr @Wlc_NtkObj(ptr noundef %43, i32 noundef %46)
  store ptr %47, ptr %5, align 8, !tbaa !12
  br label %48

48:                                               ; preds = %42, %37
  %49 = phi i1 [ false, %37 ], [ true, %42 ]
  br i1 %49, label %50, label %93

50:                                               ; preds = %48
  %51 = load ptr, ptr %5, align 8, !tbaa !12
  %52 = call i32 @Wlc_ObjType(ptr noundef %51)
  %53 = icmp ne i32 %52, 54
  br i1 %53, label %54, label %55

54:                                               ; preds = %50
  br label %90

55:                                               ; preds = %50
  %56 = load ptr, ptr %9, align 8, !tbaa !10
  call void @Vec_IntClear(ptr noundef %56)
  %57 = load ptr, ptr %3, align 8, !tbaa !3
  %58 = load ptr, ptr %5, align 8, !tbaa !12
  %59 = load ptr, ptr %9, align 8, !tbaa !10
  %60 = load i32, ptr %4, align 4, !tbaa !8
  call void @Wlc_NtkExploreMem_rec(ptr noundef %57, ptr noundef %58, ptr noundef %59, i32 noundef %60)
  %61 = load ptr, ptr %3, align 8, !tbaa !3
  %62 = load ptr, ptr %5, align 8, !tbaa !12
  %63 = call i32 @Wlc_ObjId(ptr noundef %61, ptr noundef %62)
  %64 = call i32 (ptr, ...) @printf(ptr noundef @.str.28, i32 noundef %63)
  %65 = load ptr, ptr %9, align 8, !tbaa !10
  %66 = call i32 @Vec_IntSize(ptr noundef %65)
  %67 = call i32 (ptr, ...) @printf(ptr noundef @.str.29, i32 noundef %66)
  store i32 0, ptr %7, align 4, !tbaa !8
  br label %68

68:                                               ; preds = %85, %55
  %69 = load i32, ptr %7, align 4, !tbaa !8
  %70 = load ptr, ptr %9, align 8, !tbaa !10
  %71 = call i32 @Vec_IntSize(ptr noundef %70)
  %72 = icmp slt i32 %69, %71
  br i1 %72, label %73, label %77

73:                                               ; preds = %68
  %74 = load ptr, ptr %9, align 8, !tbaa !10
  %75 = load i32, ptr %7, align 4, !tbaa !8
  %76 = call i32 @Vec_IntEntry(ptr noundef %74, i32 noundef %75)
  store i32 %76, ptr %8, align 4, !tbaa !8
  br label %77

77:                                               ; preds = %73, %68
  %78 = phi i1 [ false, %68 ], [ true, %73 ]
  br i1 %78, label %79, label %88

79:                                               ; preds = %77
  %80 = load i32, ptr %8, align 4, !tbaa !8
  %81 = load ptr, ptr %3, align 8, !tbaa !3
  %82 = load i32, ptr %8, align 4, !tbaa !8
  %83 = call ptr @Wlc_ObjName(ptr noundef %81, i32 noundef %82)
  %84 = call i32 (ptr, ...) @printf(ptr noundef @.str.30, i32 noundef %80, ptr noundef %83)
  br label %85

85:                                               ; preds = %79
  %86 = load i32, ptr %7, align 4, !tbaa !8
  %87 = add nsw i32 %86, 1
  store i32 %87, ptr %7, align 4, !tbaa !8
  br label %68, !llvm.loop !166

88:                                               ; preds = %77
  %89 = call i32 (ptr, ...) @printf(ptr noundef @.str.5)
  br label %90

90:                                               ; preds = %88, %54
  %91 = load i32, ptr %6, align 4, !tbaa !8
  %92 = add nsw i32 %91, 1
  store i32 %92, ptr %6, align 4, !tbaa !8
  br label %37, !llvm.loop !167

93:                                               ; preds = %48
  %94 = load ptr, ptr %10, align 8, !tbaa !10
  call void @Vec_IntFree(ptr noundef %94)
  %95 = load ptr, ptr %9, align 8, !tbaa !10
  call void @Vec_IntFree(ptr noundef %95)
  %96 = load ptr, ptr %3, align 8, !tbaa !3
  call void @Wlc_NtkCleanMarks(ptr noundef %96)
  call void @llvm.lifetime.end.p0(i64 8, ptr %10) #12
  call void @llvm.lifetime.end.p0(i64 8, ptr %9) #12
  call void @llvm.lifetime.end.p0(i64 4, ptr %8) #12
  call void @llvm.lifetime.end.p0(i64 4, ptr %7) #12
  call void @llvm.lifetime.end.p0(i64 4, ptr %6) #12
  call void @llvm.lifetime.end.p0(i64 8, ptr %5) #12
  ret void
}