; Function Attrs: nounwind uwtable
define void @Wlc_NtkExploreMem(ptr noundef %0, i32 noundef %1) local_unnamed_addr #0 {
Vec_IntStart.exit:
  %2 = tail call noalias dereferenceable_or_null(16) ptr @malloc(i64 noundef 16) #25
  %3 = getelementptr inbounds nuw i8, ptr %2, i64 4
  store i32 1000, ptr %2, align 8, !tbaa !25
  %calloc = tail call dereferenceable_or_null(4000) ptr @calloc(i64 1, i64 4000)
  %4 = getelementptr inbounds nuw i8, ptr %2, i64 8
  store ptr %calloc, ptr %4, align 8, !tbaa !3
  %5 = tail call ptr @Wlc_NtkCollectMemory(ptr noundef %0, i32 noundef 1)
  tail call void @Wlc_NtkCleanMarks(ptr noundef %0) #26
  %6 = getelementptr i8, ptr %5, i64 4
  %.val47 = load i32, ptr %6, align 4, !tbaa !26
  %7 = icmp sgt i32 %.val47, 0
  %8 = getelementptr i8, ptr %5, i64 8
  %.val40 = load ptr, ptr %8, align 8, !tbaa !3
  br i1 %7, label %.lr.ph, label %.critedge2

.lr.ph:                                           ; preds = %Vec_IntStart.exit
  %9 = getelementptr i8, ptr %0, i64 640
  %wide.trip.count = zext nneg i32 %.val47 to i64
  br label %12

.lr.ph56:                                         ; preds = %12
  %10 = getelementptr i8, ptr %5, i64 8
  %.val39 = load ptr, ptr %10, align 8, !tbaa !3
  %11 = getelementptr i8, ptr %0, i64 640
  %wide.trip.count66 = zext nneg i32 %.val47 to i64
  br label %19

12:                                               ; preds = %.lr.ph, %12
  %indvars.iv = phi i64 [ 0, %.lr.ph ], [ %indvars.iv.next, %12 ]
  %13 = getelementptr inbounds nuw i32, ptr %.val40, i64 %indvars.iv
  %14 = load i32, ptr %13, align 4, !tbaa !10
  %.val42 = load ptr, ptr %9, align 8, !tbaa !11
  %15 = sext i32 %14 to i64
  %16 = getelementptr inbounds %struct.Wlc_Obj_t_, ptr %.val42, i64 %15
  %17 = load i16, ptr %16, align 8
  %18 = or i16 %17, 128
  store i16 %18, ptr %16, align 8
  %indvars.iv.next = add nuw nsw i64 %indvars.iv, 1
  %exitcond.not = icmp eq i64 %indvars.iv.next, %wide.trip.count
  br i1 %exitcond.not, label %.lr.ph56, label %12, !llvm.loop !155

19:                                               ; preds = %.lr.ph56, %.critedge
  %indvars.iv63 = phi i64 [ 0, %.lr.ph56 ], [ %indvars.iv.next64, %.critedge ]
  %20 = getelementptr inbounds nuw i32, ptr %.val39, i64 %indvars.iv63
  %21 = load i32, ptr %20, align 4, !tbaa !10
  %.val41 = load ptr, ptr %11, align 8, !tbaa !11
  %22 = sext i32 %21 to i64
  %23 = getelementptr inbounds %struct.Wlc_Obj_t_, ptr %.val41, i64 %22
  %.val48 = load i16, ptr %23, align 8
  %24 = and i16 %.val48, 63
  %.not = icmp eq i16 %24, 54
  br i1 %.not, label %25, label %.critedge

25:                                               ; preds = %19
  store i32 0, ptr %3, align 4, !tbaa !26
  tail call void @Wlc_NtkExploreMem_rec(ptr noundef nonnull %0, ptr noundef nonnull %23, ptr noundef nonnull %2, i32 noundef %1)
  %.val43 = load ptr, ptr %11, align 8, !tbaa !11
  %26 = ptrtoint ptr %23 to i64
  %27 = ptrtoint ptr %.val43 to i64
  %28 = sub i64 %26, %27
  %29 = sdiv exact i64 %28, 24
  %30 = trunc i64 %29 to i32
  %31 = tail call i32 (ptr, ...) @printf(ptr noundef nonnull dereferenceable(1) @.str.28, i32 noundef %30)
  %.val45 = load i32, ptr %3, align 4, !tbaa !26
  %32 = tail call i32 (ptr, ...) @printf(ptr noundef nonnull dereferenceable(1) @.str.29, i32 noundef %.val45)
  %33 = icmp sgt i32 %.val45, 0
  br i1 %33, label %.lr.ph54, label %.critedge4

.lr.ph54:                                         ; preds = %25
  %.val = load ptr, ptr %4, align 8, !tbaa !3
  %wide.trip.count61 = zext nneg i32 %.val45 to i64
  br label %34

34:                                               ; preds = %.lr.ph54, %34
  %indvars.iv58 = phi i64 [ 0, %.lr.ph54 ], [ %indvars.iv.next59, %34 ]
  %35 = getelementptr inbounds nuw i32, ptr %.val, i64 %indvars.iv58
  %36 = load i32, ptr %35, align 4, !tbaa !10
  %37 = tail call ptr @Wlc_ObjName(ptr noundef nonnull %0, i32 noundef %36) #26
  %38 = tail call i32 (ptr, ...) @printf(ptr noundef nonnull dereferenceable(1) @.str.30, i32 noundef %36, ptr noundef %37)
  %indvars.iv.next59 = add nuw nsw i64 %indvars.iv58, 1
  %exitcond62.not = icmp eq i64 %indvars.iv.next59, %wide.trip.count61
  br i1 %exitcond62.not, label %.critedge4, label %34, !llvm.loop !156

.critedge4:                                       ; preds = %34, %25
  %putchar = tail call i32 @putchar(i32 10)
  br label %.critedge

.critedge:                                        ; preds = %19, %.critedge4
  %indvars.iv.next64 = add nuw nsw i64 %indvars.iv63, 1
  %exitcond67.not = icmp eq i64 %indvars.iv.next64, %wide.trip.count66
  br i1 %exitcond67.not, label %.critedge2, label %19, !llvm.loop !157

.critedge2:                                       ; preds = %.critedge, %Vec_IntStart.exit
  %39 = phi ptr [ %.val40, %Vec_IntStart.exit ], [ %.val39, %.critedge ]
  %.not.i49 = icmp eq ptr %39, null
  br i1 %.not.i49, label %Vec_IntFree.exit, label %40

40:                                               ; preds = %.critedge2
  tail call void @free(ptr noundef nonnull %39) #26
  br label %Vec_IntFree.exit

Vec_IntFree.exit:                                 ; preds = %.critedge2, %40
  tail call void @free(ptr noundef nonnull %5) #26
  %41 = load ptr, ptr %4, align 8, !tbaa !3
  %.not.i50 = icmp eq ptr %41, null
  br i1 %.not.i50, label %Vec_IntFree.exit51, label %42

42:                                               ; preds = %Vec_IntFree.exit
  tail call void @free(ptr noundef nonnull %41) #26
  br label %Vec_IntFree.exit51

Vec_IntFree.exit51:                               ; preds = %Vec_IntFree.exit, %42
  tail call void @free(ptr noundef nonnull %2) #26
  tail call void @Wlc_NtkCleanMarks(ptr noundef %0) #26
  ret void
}